******************************************************************************
                  TI ARM Linker PC v18.12.2                    
******************************************************************************
>> Linked Thu Jul 23 03:04:39 2020

OUTPUT FILE NAME:   <MemoryStack.out>
ENTRY POINT SYMBOL: "_c_int00_noargs"  address: 00006f4d


MEMORY CONFIGURATION

         name            origin    length      used     unused   attr    fill
----------------------  --------  ---------  --------  --------  ----  --------
  FLASH                 00000000   00040000  00007450  00038bb0  R  X
  SRAM                  20000000   00008000  00001a3f  000065c1  RW X


SEGMENT ALLOCATION MAP

run origin  load origin   length   init length attrs members
----------  ----------- ---------- ----------- ----- -------
00000000    00000000    00007450   00007450    r-x
  00000000    00000000    0000026c   0000026c    r-- .intvecs
  0000026c    0000026c    00006d48   00006d48    r-x .text
  00006fb4    00006fb4    0000036c   0000036c    r-- .const
  00007320    00007320    00000130   00000130    r-- .cinit
20000000    20000000    00001a40   00000000    rw-
  20000000    20000000    0000026c   00000000    rw- .vtable
  2000026c    2000026c    00000e73   00000000    rw- .bss
  200010e0    200010e0    00000760   00000000    rw- .data
  20001840    20001840    00000200   00000000    rw- .stack


SECTION ALLOCATION MAP

 output                                  attributes/
section   page    origin      length       input sections
--------  ----  ----------  ----------   ----------------
.intvecs   0    00000000    0000026c     
                  00000000    0000026c     tm4c123gh6pm_startup_ccs.obj (.intvecs)

.text      0    0000026c    00006d48     
                  0000026c    00001c1c     NvM.obj (.text)
                  00001e88    000010d8     Fee.obj (.text)
                  00002f60    00000f80     sysctl.obj (.text)
                  00003ee0    00000904     Fee_Sector.obj (.text)
                  000047e4    000008ac     Ea.obj (.text)
                  00005090    000007e0     Eep.obj (.text)
                  00005870    000007c8     Fls.obj (.text)
                  00006038    00000610     Queue.obj (.text)
                  00006648    000003c0     interrupt.obj (.text)
                  00006a08    00000250     main.obj (.text)
                  00006c58    000000a4     MemIf.obj (.text)
                  00006cfc    0000009c     rtsv7M4_T_le_v4SPD16_eabi.lib : memcpy_t2.asm.obj (.text)
                  00006d98    0000007a                                   : memset_t2.asm.obj (.text)
                  00006e12    00000068                                   : copy_decompress_lzss.c.obj (.text:decompress:lzss:__TI_decompress_lzss)
                  00006e7a    0000004e     stub.obj (.text)
                  00006ec8    00000044     rtsv7M4_T_le_v4SPD16_eabi.lib : autoinit.c.obj (.text:__TI_auto_init_nobinit_nopinit:__TI_auto_init_nobinit_nopinit)
                  00006f0c    0000003e     cpu.obj (.text)
                  00006f4a    00000002     --HOLE-- [fill = 0]
                  00006f4c    00000034     rtsv7M4_T_le_v4SPD16_eabi.lib : boot_cortex_m.c.obj (.text:_c_int00_noargs:_c_int00_noargs)
                  00006f80    0000000e                                   : copy_decompress_none.c.obj (.text:decompress:none:__TI_decompress_none)
                  00006f8e    0000000c                                   : copy_zero_init.c.obj (.text:decompress:ZI:__TI_zero_init)
                  00006f9a    0000000c     tm4c123gh6pm_startup_ccs.obj (.text)
                  00006fa6    00000006     sysctl.obj (.text:SysCtlDelay)
                  00006fac    00000004     rtsv7M4_T_le_v4SPD16_eabi.lib : pre_init.c.obj (.text:_system_pre_init)
                  00006fb0    00000004                                   : exit.c.obj (.text:abort:abort)

.const     0    00006fb4    0000036c     
                  00006fb4    000001b0     sysctl.obj (.const:g_pppui32XTALtoVCO)
                  00007164    0000009c     interrupt.obj (.const:g_pui32Regs)
                  00007200    0000006c     sysctl.obj (.const:g_pui32Xtals)
                  0000726c    00000030     sysctl.obj (.const:g_sXTALtoMEMTIM)
                  0000729c    00000020     interrupt.obj (.const:g_pui32Priority)
                  000072bc    00000014     interrupt.obj (.const:g_pui32Dii16Regs)
                  000072d0    00000014     interrupt.obj (.const:g_pui32EnRegs)
                  000072e4    00000014     interrupt.obj (.const:g_pui32PendRegs)
                  000072f8    00000014     interrupt.obj (.const:g_pui32UnpendRegs)
                  0000730c    0000000c     NvM.obj (.const:$P$T0$1)
                  00007318    00000008     sysctl.obj (.const:g_pui32VCOFrequencies)

.cinit     0    00007320    00000130     
                  00007320    000000fc     (.cinit..data.load) [load image, compression = lzss]
                  0000741c    0000000c     (__TI_handler_table)
                  00007428    00000008     (.cinit..bss.load) [load image, compression = zero_init]
                  00007430    00000008     (.cinit..vtable.load) [load image, compression = zero_init]
                  00007438    00000018     (__TI_cinit_table)

.init_array 
*          0    00000000    00000000     UNINITIALIZED

.vtable    0    20000000    0000026c     UNINITIALIZED
                  20000000    0000026c     interrupt.obj (.vtable)

.bss       0    2000026c    00000e73     UNINITIALIZED
                  2000026c    000004b0     Queue.obj (.bss:Immediate_Job_Queue)
                  2000071c    00000404     NvM.obj (.bss:TempBuffer)
                  20000b20    00000400     (.common:Rdata)
                  20000f20    00000078     (.common:Standard_Job_Queue)
                  20000f98    00000048     (.common:BlockData)
                  20000fe0    00000028     NvM.obj (.bss:AdministrativeBlock)
                  20001008    00000018     (.common:ActiveSectorInfo)
                  20001020    00000018     (.common:Block4_PRAMBLOCK)
                  20001038    00000014     Fee_Sector.obj (.bss:cmd$1)
                  2000104c    00000014     Fee_Sector.obj (.bss:cmd$4)
                  20001060    00000014     (.common:CRC_Job_Queue)
                  20001074    00000010     (.common:Block3_RAMBLOCK)
                  20001084    0000000c     NvM.obj (.bss:Current_Job)
                  20001090    0000000c     Eep.obj (.bss:ParametersCopyObj)
                  2000109c    0000000a     Fls.obj (.bss)
                  200010a6    00000001     NvM.obj (.bss:EndJobStatus)
                  200010a7    00000001     --HOLE--
                  200010a8    00000009     Ea.obj (.bss)
                  200010b1    00000003     NvM.obj (.bss:MultiBlcokRequest)
                  200010b4    00000009     NvM.obj (.bss)
                  200010bd    00000003     --HOLE--
                  200010c0    00000008     Ea.obj (.bss:ParametersCopy)
                  200010c8    00000008     (.common:JobParametersCopy)
                  200010d0    00000007     Fee.obj (.bss)
                  200010d7    00000004     (.common:Block2_PRAMBLOCK)
                  200010db    00000004     (.common:ModuleInternalManagement)

.data      0    200010e0    00000760     UNINITIALIZED
                  200010e0    00000400     main.obj (.data:Wdata)
                  200014e0    00000140     NvM_Lcfg.obj (.data:NvMBlockDescriptor)
                  20001620    000000a0     Fee.obj (.data:ValidBlocksInfo)
                  200016c0    00000078     Fee_PrivateCfg.obj (.data:Fee_BlockConfig)
                  20001738    0000002c     Fee_Sector.obj (.data)
                  20001764    0000001c     Eep_PBcfg.obj (.data:EepInitConfiguration)
                  20001780    00000015     AppCfg.obj (.data:Block4_ROMBLOCK)
                  20001795    00000003     main.obj (.data)
                  20001798    00000014     Fee.obj (.data)
                  200017ac    00000010     AppCfg.obj (.data:Block3_ROMBLOCK)
                  200017bc    00000010     Fls.obj (.data)
                  200017cc    00000010     NvM.obj (.data)
                  200017dc    0000000c     Ea_PrivateCfg.obj (.data:Ea_BlockSConfig)
                  200017e8    00000008     Eep.obj (.data)
                  200017f0    00000008     Fls_PBcfg.obj (.data:Fls_Config)
                  200017f8    00000008     MemIf.obj (.data:MemIf_GetResultFctPtr)
                  20001800    00000008     MemIf.obj (.data:MemIf_GetStatusFctPtr)
                  20001808    00000008     MemIf.obj (.data:MemIf_InvalidateFctPtr)
                  20001810    00000008     MemIf.obj (.data:MemIf_ReadFctPtr)
                  20001818    00000008     MemIf.obj (.data:MemIf_WriteFctPtr)
                  20001820    00000006     Queue.obj (.data)
                  20001826    00000005     Ea.obj (.data)
                  2000182b    00000004     AppCfg.obj (.data:Block2_ROMBLOCK)
                  2000182f    00000001     --HOLE--
                  20001830    00000004     Queue.obj (.data:CRC_Queue_Indeces)
                  20001834    00000004     Eep_PBcfg.obj (.data:Eep_Config)
                  20001838    00000004     Queue.obj (.data:Immed_Queue_Indeces)
                  2000183c    00000004     Queue.obj (.data:Stand_Queue_Indeces)

.stack     0    20001840    00000200     UNINITIALIZED
                  20001840    00000004     rtsv7M4_T_le_v4SPD16_eabi.lib : boot_cortex_m.c.obj (.stack)
                  20001844    000001fc     --HOLE--

MODULE SUMMARY

       Module                         code    ro data   rw data
       ------                         ----    -------   -------
    .\
       main.obj                       592     0         2051   
       tm4c123gh6pm_startup_ccs.obj   12      620       0      
    +--+------------------------------+-------+---------+---------+
       Total:                         604     620       2051   
                                                               
    .\bsw\gen\
       NvM_Lcfg.obj                   0       0         320    
       Eep_PBcfg.obj                  0       0         32     
       Fls_PBcfg.obj                  0       0         8      
    +--+------------------------------+-------+---------+---------+
       Total:                         0       0         360    
                                                               
    .\bsw\static\Infrastructure\platform\src\
       sysctl.obj                     3974    596       0      
       interrupt.obj                  960     268       620    
       cpu.obj                        62      0         0      
    +--+------------------------------+-------+---------+---------+
       Total:                         4996    864       620    
                                                               
    .\bsw\static\Interface\EA\src\
       Ea.obj                         2220    0         22     
       Ea_PrivateCfg.obj              0       0         12     
    +--+------------------------------+-------+---------+---------+
       Total:                         2220    0         34     
                                                               
    .\bsw\static\Interface\FEE\src\
       Fee.obj                        4312    0         295    
       Fee_Sector.obj                 2308    0         84     
       Fee_PrivateCfg.obj             0       0         120    
    +--+------------------------------+-------+---------+---------+
       Total:                         6620    0         499    
                                                               
    .\bsw\static\Interface\MemIf\src\
       MemIf.obj                      164     0         40     
    +--+------------------------------+-------+---------+---------+
       Total:                         164     0         40     
                                                               
    .\bsw\static\Mcal\Eep\src\
       Eep.obj                        2016    0         20     
    +--+------------------------------+-------+---------+---------+
       Total:                         2016    0         20     
                                                               
    .\bsw\static\Mcal\Flash\src\
       Fls.obj                        1992    0         26     
    +--+------------------------------+-------+---------+---------+
       Total:                         1992    0         26     
                                                               
    .\bsw\static\Service\NvM\src\
       NvM.obj                        7196    12        1109   
       Queue.obj                      1552    0         1358   
    +--+------------------------------+-------+---------+---------+
       Total:                         8748    12        2467   
                                                               
    .\bsw\stub\
       AppCfg.obj                     0       0         85     
       stub.obj                       78      0         0      
    +--+------------------------------+-------+---------+---------+
       Total:                         78      0         85     
                                                               
    C:\ti\ccs910\ccs\tools\compiler\ti-cgt-arm_18.12.2.LTS\lib\rtsv7M4_T_le_v4SPD16_eabi.lib
       memcpy_t2.asm.obj              156     0         0      
       memset_t2.asm.obj              122     0         0      
       copy_decompress_lzss.c.obj     104     0         0      
       autoinit.c.obj                 68      0         0      
       boot_cortex_m.c.obj            52      0         0      
       copy_decompress_none.c.obj     14      0         0      
       copy_zero_init.c.obj           12      0         0      
       exit.c.obj                     4       0         0      
       pre_init.c.obj                 4       0         0      
    +--+------------------------------+-------+---------+---------+
       Total:                         536     0         0      
                                                               
       Stack:                         0       0         512    
       Linker Generated:              0       304       0      
    +--+------------------------------+-------+---------+---------+
       Grand Total:                   27974   1800      6714   


LINKER GENERATED COPY TABLES

__TI_cinit_table @ 00007438 records: 3, size/record: 8, table size: 24
	.data: load addr=00007320, load size=000000fc bytes, run addr=200010e0, run size=00000760 bytes, compression=lzss
	.bss: load addr=00007428, load size=00000008 bytes, run addr=2000026c, run size=00000e73 bytes, compression=zero_init
	.vtable: load addr=00007430, load size=00000008 bytes, run addr=20000000, run size=0000026c bytes, compression=zero_init


LINKER GENERATED HANDLER TABLE

__TI_handler_table @ 0000741c records: 3, size/record: 4, table size: 12
	index: 0, handler: __TI_zero_init
	index: 1, handler: __TI_decompress_lzss
	index: 2, handler: __TI_decompress_none


GLOBAL SYMBOLS: SORTED ALPHABETICALLY BY Name 

address   name                            
-------   ----                            
20001008  ActiveSectorInfo                
200010d7  Block2_PRAMBLOCK                
2000182b  Block2_ROMBLOCK                 
20001074  Block3_RAMBLOCK                 
200017ac  Block3_ROMBLOCK                 
20001020  Block4_PRAMBLOCK                
20001780  Block4_ROMBLOCK                 
20000f98  BlockData                       
00006a09  Block_2_NvMSingleBlockCallback  
00006fb1  C$$EXIT                         
00006f41  CPUbasepriGet                   
00006f33  CPUbasepriSet                   
00006f0d  CPUcpsid                        
00006f23  CPUcpsie                        
00006f19  CPUprimask                      
00006f2f  CPUwfi                          
00006599  CRCJob_Dequeue                  
00006525  CRCJob_Enqueue                  
20001060  CRC_Job_Queue                   
20001824  CRC_Queue_Empty                 
20001825  CRC_Queue_Full                  
20001830  CRC_Queue_Indeces               
00006e7b  Det_ReportError                 
00006eaf  Det_ReportRuntimeError          
00006e95  Det_ReportTransientFault        
200017dc  Ea_BlockSConfig                 
00004a6f  Ea_Cancel                       
00004ab7  Ea_GetJobResult                 
00004ab1  Ea_GetStatus                    
000047e5  Ea_Init                         
00004ac5  Ea_InvalidateBlock              
00004a5f  Ea_JobEndNotification           
00004a67  Ea_JobErrorNotification         
00004b3b  Ea_MainFunction                 
00004867  Ea_Read                         
0000498d  Ea_Write                        
20001764  EepInitConfiguration            
00005495  Eep_Cancel                      
000053c5  Eep_Compare                     
20001834  Eep_Config                      
00005307  Eep_Erase                       
000054c3  Eep_GetJobResult                
000054bd  Eep_GetStatus                   
000050fb  Eep_Init                        
000054c9  Eep_MainFunction                
00005179  Eep_Read                        
0000523b  Eep_Write                       
000043ad  Erase_Virtualsector             
200016c0  Fee_BlockConfig                 
00002155  Fee_Cancel                      
0000220f  Fee_GetJobResult                
00002209  Fee_GetStatus                   
000022ff  Fee_GetVersionInfo              
00001e89  Fee_Init                        
0000223d  Fee_InvalidateBlock             
00002321  Fee_JobEndNotification          
00002329  Fee_JobErrorNotification        
00002331  Fee_MainFunction                
00001efd  Fee_Read                        
00002049  Fee_Write                       
00001cf5  FillTempBuffer                  
00004219  FindActiveSector                
00003ee1  FindValidBlocks                 
00005f3d  Fls_BlankCheck                  
00005d0d  Fls_Cancel                      
00005e2d  Fls_Compare                     
200017f0  Fls_Config                      
00005b8d  Fls_Erase                       
00005d5f  Fls_GetJobResult                
00005d59  Fls_GetStatus                   
00005f13  Fls_GetVersionInfo              
00005b31  Fls_Init                        
00005fd1  Fls_MainFunction                
00005d7d  Fls_Read                        
00005ef5  Fls_SetMode                     
00005c49  Fls_Write                       
000046e1  GetIndexFromBlockNum            
0000441d  GetSectorStatus                 
000064cd  Get_SingleJob                   
20001822  Immediate_Queue_Empty           
20001823  Immediate_Queue_FULL            
00006039  Init_Queues                     
00006809  IntDisable                      
00006797  IntEnable                       
0000687b  IntIsEnabled                    
0000665b  IntMasterDisable                
0000664b  IntMasterEnable                 
00006971  IntPendClear                    
00006901  IntPendSet                      
00006773  IntPriorityGet                  
000066eb  IntPriorityGroupingGet          
000066d1  IntPriorityGroupingSet          
000069cb  IntPriorityMaskGet              
000069bf  IntPriorityMaskSet              
00006723  IntPrioritySet                  
0000666b  IntRegister                     
000069d3  IntTrigger                      
000066bd  IntUnregister                   
20001798  JobDone                         
20001799  JobError                        
200010c8  JobParametersCopy               
000063e1  Job_Dequeue                     
000061f9  Job_Enqueue                     
20001796  MBRequest                       
00006cb9  MemIf_GetJobResult              
200017f8  MemIf_GetResultFctPtr           
00006ca5  MemIf_GetStatus                 
20001800  MemIf_GetStatusFctPtr           
00006ccd  MemIf_InvalidateBlock           
20001808  MemIf_InvalidateFctPtr          
00006c59  MemIf_Read                      
20001810  MemIf_ReadFctPtr                
00006c85  MemIf_Write                     
20001818  MemIf_WriteFctPtr               
200010db  ModuleInternalManagement        
200014e0  NvMBlockDescriptor              
00000385  NvM_GetDataIndex                
00000413  NvM_GetErrorStatus              
0000026d  NvM_Init                        
00000979  NvM_InvalidateNvBlock           
00000ab5  NvM_JobEndNotification          
00000ac5  NvM_JobErrorNotification        
00000ad9  NvM_MainFunction                
00006a57  NvM_MultiBlockCallbackFunction  
00000a51  NvM_ReadAll                     
000006a5  NvM_ReadBlock                   
0000046d  NvM_RestoreBlockDefaults        
000002d3  NvM_SetDataIndex                
000005db  NvM_SetRamBlockResultStatus     
00000a83  NvM_WriteAll                    
00000861  NvM_WriteBlock                  
20000b20  Rdata                           
000042a1  ReadVariable                    
00006f9b  ResetISR                        
00004063  SearchSectorValidBlocks         
00006155  Search_Queue                    
00004445  SetSectorStatus                 
00006c19  Set_SystemClock                 
2000183c  Stand_Queue_Indeces             
20000f20  Standard_Job_Queue              
20001820  Standard_Queue_Empty            
20001821  Standard_Queue_FULL             
00003e9d  SysCtlAltClkConfig              
000035c5  SysCtlClockFreqSet              
00003a8d  SysCtlClockGet                  
00003e81  SysCtlClockOutConfig            
000038bd  SysCtlClockSet                  
000034c9  SysCtlDeepSleep                 
00003c51  SysCtlDeepSleepClockConfigSet   
00003c33  SysCtlDeepSleepClockSet         
000034a9  SysCtlDeepSleepPowerSet         
00006fa7  SysCtlDelay                     
00003057  SysCtlFlashSectorSizeGet        
0000302b  SysCtlFlashSizeGet              
00003d27  SysCtlGPIOAHBDisable            
00003d0b  SysCtlGPIOAHBEnable             
0000343d  SysCtlIntClear                  
00003425  SysCtlIntDisable                
00003411  SysCtlIntEnable                 
000033e9  SysCtlIntRegister               
0000344d  SysCtlIntStatus                 
00003401  SysCtlIntUnregister             
0000348f  SysCtlLDODeepSleepGet           
0000347f  SysCtlLDODeepSleepSet           
00003479  SysCtlLDOSleepGet               
00003469  SysCtlLDOSleepSet               
000034ff  SysCtlMOSCConfigSet             
00003e65  SysCtlNMIClear                  
00003e51  SysCtlNMIStatus                 
00003515  SysCtlPIOSCCalibrate            
00003cf5  SysCtlPWMClockGet               
00003cdb  SysCtlPWMClockSet               
00003395  SysCtlPeripheralClockGating     
0000334d  SysCtlPeripheralDeepSleepDisable
000032fd  SysCtlPeripheralDeepSleepEnable 
00003239  SysCtlPeripheralDisable         
000031fd  SysCtlPeripheralEnable          
00003139  SysCtlPeripheralPowerOff        
000030fd  SysCtlPeripheralPowerOn         
0000307d  SysCtlPeripheralPresent         
000030bd  SysCtlPeripheralReady           
00003175  SysCtlPeripheralReset           
000032c1  SysCtlPeripheralSleepDisable    
0000327d  SysCtlPeripheralSleepEnable     
000034b9  SysCtlReset                     
00003575  SysCtlResetBehaviorGet          
00003565  SysCtlResetBehaviorSet          
000034eb  SysCtlResetCauseClear           
000034e5  SysCtlResetCauseGet             
00003021  SysCtlSRAMSizeGet               
000034c1  SysCtlSleep                     
00003495  SysCtlSleepPowerSet             
00003d4f  SysCtlUSBPLLDisable             
00003d43  SysCtlUSBPLLEnable              
00003d95  SysCtlVCOGet                    
00003d7d  SysCtlVoltageEventClear         
00003d61  SysCtlVoltageEventConfig        
00003d71  SysCtlVoltageEventStatus        
000044c5  TransferSector                  
20001620  ValidBlocksInfo                 
200010e0  Wdata                           
0000448d  WriteBlock                      
00004321  WriteVariable                   
00006a6f  Write_buffer                    
20001a40  __STACK_END                     
00000200  __STACK_SIZE                    
20001a40  __STACK_TOP                     
00007438  __TI_CINIT_Base                 
00007450  __TI_CINIT_Limit                
0000741c  __TI_Handler_Table_Base         
00007428  __TI_Handler_Table_Limit        
00006ec9  __TI_auto_init_nobinit_nopinit  
00006e13  __TI_decompress_lzss            
00006f81  __TI_decompress_none            
ffffffff  __TI_pprof_out_hndl             
ffffffff  __TI_prof_data_size             
ffffffff  __TI_prof_data_start            
00000000  __TI_static_base__              
00006f8f  __TI_zero_init                  
00006d99  __aeabi_memclr                  
00006d99  __aeabi_memclr4                 
00006d99  __aeabi_memclr8                 
00006cfd  __aeabi_memcpy                  
00006cfd  __aeabi_memcpy4                 
00006cfd  __aeabi_memcpy8                 
00006d9b  __aeabi_memset                  
00006d9b  __aeabi_memset4                 
00006d9b  __aeabi_memset8                 
ffffffff  __binit__                       
ffffffff  __c_args__                      
UNDEFED   __mpu_init                      
20001840  __stack                         
00006f4d  _c_int00_noargs                 
UNDEFED   _system_post_cinit              
00006fad  _system_pre_init                
00006fb1  abort                           
ffffffff  binit                           
20001797  flag                            
20000000  g_pfnRAMVectors                 
00000000  g_pfnVectors                    
00006ab1  main                            
00006cfd  memcpy                          
00006da1  memset                          
20001795  test_case_state                 


GLOBAL SYMBOLS: SORTED BY Symbol Address 

address   name                            
-------   ----                            
00000000  __TI_static_base__              
00000000  g_pfnVectors                    
00000200  __STACK_SIZE                    
0000026d  NvM_Init                        
000002d3  NvM_SetDataIndex                
00000385  NvM_GetDataIndex                
00000413  NvM_GetErrorStatus              
0000046d  NvM_RestoreBlockDefaults        
000005db  NvM_SetRamBlockResultStatus     
000006a5  NvM_ReadBlock                   
00000861  NvM_WriteBlock                  
00000979  NvM_InvalidateNvBlock           
00000a51  NvM_ReadAll                     
00000a83  NvM_WriteAll                    
00000ab5  NvM_JobEndNotification          
00000ac5  NvM_JobErrorNotification        
00000ad9  NvM_MainFunction                
00001cf5  FillTempBuffer                  
00001e89  Fee_Init                        
00001efd  Fee_Read                        
00002049  Fee_Write                       
00002155  Fee_Cancel                      
00002209  Fee_GetStatus                   
0000220f  Fee_GetJobResult                
0000223d  Fee_InvalidateBlock             
000022ff  Fee_GetVersionInfo              
00002321  Fee_JobEndNotification          
00002329  Fee_JobErrorNotification        
00002331  Fee_MainFunction                
00003021  SysCtlSRAMSizeGet               
0000302b  SysCtlFlashSizeGet              
00003057  SysCtlFlashSectorSizeGet        
0000307d  SysCtlPeripheralPresent         
000030bd  SysCtlPeripheralReady           
000030fd  SysCtlPeripheralPowerOn         
00003139  SysCtlPeripheralPowerOff        
00003175  SysCtlPeripheralReset           
000031fd  SysCtlPeripheralEnable          
00003239  SysCtlPeripheralDisable         
0000327d  SysCtlPeripheralSleepEnable     
000032c1  SysCtlPeripheralSleepDisable    
000032fd  SysCtlPeripheralDeepSleepEnable 
0000334d  SysCtlPeripheralDeepSleepDisable
00003395  SysCtlPeripheralClockGating     
000033e9  SysCtlIntRegister               
00003401  SysCtlIntUnregister             
00003411  SysCtlIntEnable                 
00003425  SysCtlIntDisable                
0000343d  SysCtlIntClear                  
0000344d  SysCtlIntStatus                 
00003469  SysCtlLDOSleepSet               
00003479  SysCtlLDOSleepGet               
0000347f  SysCtlLDODeepSleepSet           
0000348f  SysCtlLDODeepSleepGet           
00003495  SysCtlSleepPowerSet             
000034a9  SysCtlDeepSleepPowerSet         
000034b9  SysCtlReset                     
000034c1  SysCtlSleep                     
000034c9  SysCtlDeepSleep                 
000034e5  SysCtlResetCauseGet             
000034eb  SysCtlResetCauseClear           
000034ff  SysCtlMOSCConfigSet             
00003515  SysCtlPIOSCCalibrate            
00003565  SysCtlResetBehaviorSet          
00003575  SysCtlResetBehaviorGet          
000035c5  SysCtlClockFreqSet              
000038bd  SysCtlClockSet                  
00003a8d  SysCtlClockGet                  
00003c33  SysCtlDeepSleepClockSet         
00003c51  SysCtlDeepSleepClockConfigSet   
00003cdb  SysCtlPWMClockSet               
00003cf5  SysCtlPWMClockGet               
00003d0b  SysCtlGPIOAHBEnable             
00003d27  SysCtlGPIOAHBDisable            
00003d43  SysCtlUSBPLLEnable              
00003d4f  SysCtlUSBPLLDisable             
00003d61  SysCtlVoltageEventConfig        
00003d71  SysCtlVoltageEventStatus        
00003d7d  SysCtlVoltageEventClear         
00003d95  SysCtlVCOGet                    
00003e51  SysCtlNMIStatus                 
00003e65  SysCtlNMIClear                  
00003e81  SysCtlClockOutConfig            
00003e9d  SysCtlAltClkConfig              
00003ee1  FindValidBlocks                 
00004063  SearchSectorValidBlocks         
00004219  FindActiveSector                
000042a1  ReadVariable                    
00004321  WriteVariable                   
000043ad  Erase_Virtualsector             
0000441d  GetSectorStatus                 
00004445  SetSectorStatus                 
0000448d  WriteBlock                      
000044c5  TransferSector                  
000046e1  GetIndexFromBlockNum            
000047e5  Ea_Init                         
00004867  Ea_Read                         
0000498d  Ea_Write                        
00004a5f  Ea_JobEndNotification           
00004a67  Ea_JobErrorNotification         
00004a6f  Ea_Cancel                       
00004ab1  Ea_GetStatus                    
00004ab7  Ea_GetJobResult                 
00004ac5  Ea_InvalidateBlock              
00004b3b  Ea_MainFunction                 
000050fb  Eep_Init                        
00005179  Eep_Read                        
0000523b  Eep_Write                       
00005307  Eep_Erase                       
000053c5  Eep_Compare                     
00005495  Eep_Cancel                      
000054bd  Eep_GetStatus                   
000054c3  Eep_GetJobResult                
000054c9  Eep_MainFunction                
00005b31  Fls_Init                        
00005b8d  Fls_Erase                       
00005c49  Fls_Write                       
00005d0d  Fls_Cancel                      
00005d59  Fls_GetStatus                   
00005d5f  Fls_GetJobResult                
00005d7d  Fls_Read                        
00005e2d  Fls_Compare                     
00005ef5  Fls_SetMode                     
00005f13  Fls_GetVersionInfo              
00005f3d  Fls_BlankCheck                  
00005fd1  Fls_MainFunction                
00006039  Init_Queues                     
00006155  Search_Queue                    
000061f9  Job_Enqueue                     
000063e1  Job_Dequeue                     
000064cd  Get_SingleJob                   
00006525  CRCJob_Enqueue                  
00006599  CRCJob_Dequeue                  
0000664b  IntMasterEnable                 
0000665b  IntMasterDisable                
0000666b  IntRegister                     
000066bd  IntUnregister                   
000066d1  IntPriorityGroupingSet          
000066eb  IntPriorityGroupingGet          
00006723  IntPrioritySet                  
00006773  IntPriorityGet                  
00006797  IntEnable                       
00006809  IntDisable                      
0000687b  IntIsEnabled                    
00006901  IntPendSet                      
00006971  IntPendClear                    
000069bf  IntPriorityMaskSet              
000069cb  IntPriorityMaskGet              
000069d3  IntTrigger                      
00006a09  Block_2_NvMSingleBlockCallback  
00006a57  NvM_MultiBlockCallbackFunction  
00006a6f  Write_buffer                    
00006ab1  main                            
00006c19  Set_SystemClock                 
00006c59  MemIf_Read                      
00006c85  MemIf_Write                     
00006ca5  MemIf_GetStatus                 
00006cb9  MemIf_GetJobResult              
00006ccd  MemIf_InvalidateBlock           
00006cfd  __aeabi_memcpy                  
00006cfd  __aeabi_memcpy4                 
00006cfd  __aeabi_memcpy8                 
00006cfd  memcpy                          
00006d99  __aeabi_memclr                  
00006d99  __aeabi_memclr4                 
00006d99  __aeabi_memclr8                 
00006d9b  __aeabi_memset                  
00006d9b  __aeabi_memset4                 
00006d9b  __aeabi_memset8                 
00006da1  memset                          
00006e13  __TI_decompress_lzss            
00006e7b  Det_ReportError                 
00006e95  Det_ReportTransientFault        
00006eaf  Det_ReportRuntimeError          
00006ec9  __TI_auto_init_nobinit_nopinit  
00006f0d  CPUcpsid                        
00006f19  CPUprimask                      
00006f23  CPUcpsie                        
00006f2f  CPUwfi                          
00006f33  CPUbasepriSet                   
00006f41  CPUbasepriGet                   
00006f4d  _c_int00_noargs                 
00006f81  __TI_decompress_none            
00006f8f  __TI_zero_init                  
00006f9b  ResetISR                        
00006fa7  SysCtlDelay                     
00006fad  _system_pre_init                
00006fb1  C$$EXIT                         
00006fb1  abort                           
0000741c  __TI_Handler_Table_Base         
00007428  __TI_Handler_Table_Limit        
00007438  __TI_CINIT_Base                 
00007450  __TI_CINIT_Limit                
20000000  g_pfnRAMVectors                 
20000b20  Rdata                           
20000f20  Standard_Job_Queue              
20000f98  BlockData                       
20001008  ActiveSectorInfo                
20001020  Block4_PRAMBLOCK                
20001060  CRC_Job_Queue                   
20001074  Block3_RAMBLOCK                 
200010c8  JobParametersCopy               
200010d7  Block2_PRAMBLOCK                
200010db  ModuleInternalManagement        
200010e0  Wdata                           
200014e0  NvMBlockDescriptor              
20001620  ValidBlocksInfo                 
200016c0  Fee_BlockConfig                 
20001764  EepInitConfiguration            
20001780  Block4_ROMBLOCK                 
20001795  test_case_state                 
20001796  MBRequest                       
20001797  flag                            
20001798  JobDone                         
20001799  JobError                        
200017ac  Block3_ROMBLOCK                 
200017dc  Ea_BlockSConfig                 
200017f0  Fls_Config                      
200017f8  MemIf_GetResultFctPtr           
20001800  MemIf_GetStatusFctPtr           
20001808  MemIf_InvalidateFctPtr          
20001810  MemIf_ReadFctPtr                
20001818  MemIf_WriteFctPtr               
20001820  Standard_Queue_Empty            
20001821  Standard_Queue_FULL             
20001822  Immediate_Queue_Empty           
20001823  Immediate_Queue_FULL            
20001824  CRC_Queue_Empty                 
20001825  CRC_Queue_Full                  
2000182b  Block2_ROMBLOCK                 
20001830  CRC_Queue_Indeces               
20001834  Eep_Config                      
2000183c  Stand_Queue_Indeces             
20001840  __stack                         
20001a40  __STACK_END                     
20001a40  __STACK_TOP                     
ffffffff  __TI_pprof_out_hndl             
ffffffff  __TI_prof_data_size             
ffffffff  __TI_prof_data_start            
ffffffff  __binit__                       
ffffffff  __c_args__                      
ffffffff  binit                           
UNDEFED   __mpu_init                      
UNDEFED   _system_post_cinit              

[244 symbols]
